target datalayout = "e-m:e-p270:32:32-p271:32:32-p272:64:64-i64:64-i128:128-f80:128-n8:16:32:64-S128"
target triple = "x86_64-pc-linux-gnu"

%struct._generic_SUNLinearSolver = type { ptr, ptr, ptr }
%struct._SUNLinearSolverContent_Dense = type { i64, ptr, i64 }

; Function Attrs: nounwind uwtable
define i32 @SUNLinSolFree_Dense(ptr noundef %0) #0 {
  %2 = alloca i32, align 4
  %3 = alloca ptr, align 8
  store ptr %0, ptr %3, align 8, !tbaa !14
  %4 = load ptr, ptr %3, align 8, !tbaa !14
  %5 = icmp eq ptr %4, null
  br i1 %5, label %6, label %7

6:                                                ; preds = %1
  store i32 0, ptr %2, align 4
  br label %48

7:                                                ; preds = %1
  %8 = load ptr, ptr %3, align 8, !tbaa !14
  %9 = getelementptr inbounds nuw %struct._generic_SUNLinearSolver, ptr %8, i32 0, i32 0
  %10 = load ptr, ptr %9, align 8, !tbaa !30
  %11 = icmp ne ptr %10, null
  br i1 %11, label %12, label %35

12:                                               ; preds = %7
  %13 = load ptr, ptr %3, align 8, !tbaa !14
  %14 = getelementptr inbounds nuw %struct._generic_SUNLinearSolver, ptr %13, i32 0, i32 0
  %15 = load ptr, ptr %14, align 8, !tbaa !30
  %16 = getelementptr inbounds nuw %struct._SUNLinearSolverContent_Dense, ptr %15, i32 0, i32 1
  %17 = load ptr, ptr %16, align 8, !tbaa !35
  %18 = icmp ne ptr %17, null
  br i1 %18, label %19, label %29

19:                                               ; preds = %12
  %20 = load ptr, ptr %3, align 8, !tbaa !14
  %21 = getelementptr inbounds nuw %struct._generic_SUNLinearSolver, ptr %20, i32 0, i32 0
  %22 = load ptr, ptr %21, align 8, !tbaa !30
  %23 = getelementptr inbounds nuw %struct._SUNLinearSolverContent_Dense, ptr %22, i32 0, i32 1
  %24 = load ptr, ptr %23, align 8, !tbaa !35
  call void @free(ptr noundef %24) #5
  %25 = load ptr, ptr %3, align 8, !tbaa !14
  %26 = getelementptr inbounds nuw %struct._generic_SUNLinearSolver, ptr %25, i32 0, i32 0
  %27 = load ptr, ptr %26, align 8, !tbaa !30
  %28 = getelementptr inbounds nuw %struct._SUNLinearSolverContent_Dense, ptr %27, i32 0, i32 1
  store ptr null, ptr %28, align 8, !tbaa !35
  br label %29

29:                                               ; preds = %19, %12
  %30 = load ptr, ptr %3, align 8, !tbaa !14
  %31 = getelementptr inbounds nuw %struct._generic_SUNLinearSolver, ptr %30, i32 0, i32 0
  %32 = load ptr, ptr %31, align 8, !tbaa !30
  call void @free(ptr noundef %32) #5
  %33 = load ptr, ptr %3, align 8, !tbaa !14
  %34 = getelementptr inbounds nuw %struct._generic_SUNLinearSolver, ptr %33, i32 0, i32 0
  store ptr null, ptr %34, align 8, !tbaa !30
  br label %35

35:                                               ; preds = %29, %7
  %36 = load ptr, ptr %3, align 8, !tbaa !14
  %37 = getelementptr inbounds nuw %struct._generic_SUNLinearSolver, ptr %36, i32 0, i32 1
  %38 = load ptr, ptr %37, align 8, !tbaa !16
  %39 = icmp ne ptr %38, null
  br i1 %39, label %40, label %46

40:                                               ; preds = %35
  %41 = load ptr, ptr %3, align 8, !tbaa !14
  %42 = getelementptr inbounds nuw %struct._generic_SUNLinearSolver, ptr %41, i32 0, i32 1
  %43 = load ptr, ptr %42, align 8, !tbaa !16
  call void @free(ptr noundef %43) #5
  %44 = load ptr, ptr %3, align 8, !tbaa !14
  %45 = getelementptr inbounds nuw %struct._generic_SUNLinearSolver, ptr %44, i32 0, i32 1
  store ptr null, ptr %45, align 8, !tbaa !16
  br label %46

46:                                               ; preds = %40, %35
  %47 = load ptr, ptr %3, align 8, !tbaa !14
  call void @free(ptr noundef %47) #5
  store ptr null, ptr %3, align 8, !tbaa !14
  store i32 0, ptr %2, align 4
  br label %48

48:                                               ; preds = %46, %6
  %49 = load i32, ptr %2, align 4
  ret i32 %49
}