; Function Attrs: mustprogress nounwind willreturn uwtable
define noundef i32 @SUNLinSolFree_Dense(ptr noundef captures(address_is_null) %0) #6 {
  %2 = icmp eq ptr %0, null
  br i1 %2, label %18, label %3

3:                                                ; preds = %1
  %4 = load ptr, ptr %0, align 8, !tbaa !19
  %.not = icmp eq ptr %4, null
  br i1 %.not, label %13, label %5

5:                                                ; preds = %3
  %6 = getelementptr inbounds nuw i8, ptr %4, i64 8
  %7 = load ptr, ptr %6, align 8, !tbaa !24
  %.not14 = icmp eq ptr %7, null
  br i1 %.not14, label %11, label %8

8:                                                ; preds = %5
  tail call void @free(ptr noundef nonnull %7) #9
  %9 = load ptr, ptr %0, align 8, !tbaa !19
  %10 = getelementptr inbounds nuw i8, ptr %9, i64 8
  store ptr null, ptr %10, align 8, !tbaa !24
  br label %11

11:                                               ; preds = %8, %5
  %12 = phi ptr [ %9, %8 ], [ %4, %5 ]
  tail call void @free(ptr noundef nonnull %12) #9
  store ptr null, ptr %0, align 8, !tbaa !19
  br label %13

13:                                               ; preds = %11, %3
  %14 = getelementptr inbounds nuw i8, ptr %0, i64 8
  %15 = load ptr, ptr %14, align 8, !tbaa !3
  %.not15 = icmp eq ptr %15, null
  br i1 %.not15, label %17, label %16

16:                                               ; preds = %13
  tail call void @free(ptr noundef nonnull %15) #9
  br label %17

17:                                               ; preds = %16, %13
  tail call void @free(ptr noundef nonnull %0) #9
  br label %18

18:                                               ; preds = %1, %17
  ret i32 0
}